target datalayout = "e-m:e-p270:32:32-p271:32:32-p272:64:64-i64:64-i128:128-f80:128-n8:16:32:64-S128"
target triple = "x86_64-pc-linux-gnu"

@.str.56 = private unnamed_addr constant [14 x i8] c"ui_last/theme\00", align 1
@.str.60 = private unnamed_addr constant [16 x i8] c"use_system_font\00", align 1

; Function Attrs: nounwind uwtable
define internal void @reload_ui_last_theme() #0 {
  %1 = alloca ptr, align 8
  call void @llvm.lifetime.start.p0(i64 8, ptr %1) #10
  %2 = call ptr @dt_conf_get_string_const(ptr noundef @.str.56)
  store ptr %2, ptr %1, align 8, !tbaa !73
  %3 = load ptr, ptr %1, align 8, !tbaa !73
  call void @dt_gui_load_theme(ptr noundef %3)
  call void (...) @dt_bauhaus_load_theme()
  call void @llvm.lifetime.end.p0(i64 8, ptr %1) #10
  ret void
}

; Function Attrs: nounwind uwtable
define internal void @use_sys_font_callback(ptr noundef %0, ptr noundef %1) #0 {
  %3 = alloca ptr, align 8
  %4 = alloca ptr, align 8
  store ptr %0, ptr %3, align 8, !tbaa !6
  store ptr %1, ptr %4, align 8, !tbaa !61
  %5 = load ptr, ptr %3, align 8, !tbaa !6
  %6 = call i64 @gtk_toggle_button_get_type() #11
  %7 = call ptr @g_type_check_instance_cast(ptr noundef %5, i64 noundef %6)
  %8 = call i32 @gtk_toggle_button_get_active(ptr noundef %7)
  call void @dt_conf_set_bool(ptr noundef @.str.60, i32 noundef %8)
  %9 = call i32 @dt_conf_get_bool(ptr noundef @.str.60)
  %10 = icmp ne i32 %9, 0
  br i1 %10, label %11, label %15

11:                                               ; preds = %2
  %12 = load ptr, ptr %4, align 8, !tbaa !61
  %13 = call i64 @gtk_widget_get_type() #11
  %14 = call ptr @g_type_check_instance_cast(ptr noundef %12, i64 noundef %13)
  call void @gtk_widget_set_state_flags(ptr noundef %14, i32 noundef 8, i32 noundef 1)
  br label %19

15:                                               ; preds = %2
  %16 = load ptr, ptr %4, align 8, !tbaa !61
  %17 = call i64 @gtk_widget_get_type() #11
  %18 = call ptr @g_type_check_instance_cast(ptr noundef %16, i64 noundef %17)
  call void @gtk_widget_set_state_flags(ptr noundef %18, i32 noundef 0, i32 noundef 1)
  br label %19

19:                                               ; preds = %15, %11
  call void @reload_ui_last_theme()
  ret void
}