; Function Attrs: nounwind uwtable
define internal void @use_sys_font_callback(ptr noundef %0, ptr noundef %1) #0 {
  %3 = tail call i64 @gtk_toggle_button_get_type() #13
  %4 = tail call ptr @g_type_check_instance_cast(ptr noundef %0, i64 noundef %3) #12
  %5 = tail call i32 @gtk_toggle_button_get_active(ptr noundef %4) #12
  tail call void @dt_conf_set_bool(ptr noundef nonnull @.str.60, i32 noundef %5) #12
  %6 = tail call i32 @dt_conf_get_bool(ptr noundef nonnull @.str.60) #12
  %.not = icmp eq i32 %6, 0
  %7 = tail call i64 @gtk_widget_get_type() #13
  %8 = tail call ptr @g_type_check_instance_cast(ptr noundef %1, i64 noundef %7) #12
  %. = select i1 %.not, i32 0, i32 8
  tail call void @gtk_widget_set_state_flags(ptr noundef %8, i32 noundef %., i32 noundef 1) #12
  %9 = tail call ptr @dt_conf_get_string_const(ptr noundef nonnull @.str.56) #12
  tail call void @dt_gui_load_theme(ptr noundef %9) #12
  tail call void (...) @dt_bauhaus_load_theme() #12
  ret void
}